target datalayout = "e-m:e-p270:32:32-p271:32:32-p272:64:64-i64:64-i128:128-f80:128-n8:16:32:64-S128"
target triple = "x86_64-pc-linux-gnu"

%struct.t_fileio = type { ptr, i8, i8, i8, %"class.std::filesystem::__cxx11::path", ptr, i32, i32, ptr, ptr, %struct.tMPI_Lock }
%"class.std::filesystem::__cxx11::path" = type { %"class.std::__cxx11::basic_string", %"struct.std::filesystem::__cxx11::path::_List" }
%"class.std::__cxx11::basic_string" = type { %"struct.std::__cxx11::basic_string<char>::_Alloc_hider", i64, %union.anon }
%"struct.std::__cxx11::basic_string<char>::_Alloc_hider" = type { ptr }
%union.anon = type { i64, [8 x i8] }
%"struct.std::filesystem::__cxx11::path::_List" = type { %"class.std::unique_ptr" }
%"class.std::unique_ptr" = type { %"struct.std::__uniq_ptr_data" }
%"struct.std::__uniq_ptr_data" = type { %"class.std::__uniq_ptr_impl" }
%"class.std::__uniq_ptr_impl" = type { %"class.std::tuple" }
%"class.std::tuple" = type { %"struct.std::_Tuple_impl" }
%"struct.std::_Tuple_impl" = type { %"struct.std::_Head_base.1" }
%"struct.std::_Head_base.1" = type { ptr }
%struct.tMPI_Lock = type { %struct.tMPI_Spinlock }
%struct.tMPI_Spinlock = type { i32, [60 x i8] }

; Function Attrs: mustprogress uwtable
define void @_Z14gmx_fio_unlockP8t_fileio(ptr noundef %0) #0 {
  %2 = alloca ptr, align 8
  store ptr %0, ptr %2, align 8, !tbaa !4
  %3 = load ptr, ptr %2, align 8, !tbaa !4
  %4 = getelementptr inbounds nuw %struct.t_fileio, ptr %3, i32 0, i32 10
  call void @_Z16tMPI_Lock_unlockP9tMPI_Lock(ptr noundef %4)
  ret void
}

; Function Attrs: mustprogress uwtable
define void @_Z12gmx_fio_lockP8t_fileio(ptr noundef %0) #0 {
  %2 = alloca ptr, align 8
  store ptr %0, ptr %2, align 8, !tbaa !4
  %3 = load ptr, ptr %2, align 8, !tbaa !4
  %4 = getelementptr inbounds nuw %struct.t_fileio, ptr %3, i32 0, i32 10
  call void @_Z14tMPI_Lock_lockP9tMPI_Lock(ptr noundef %4)
  ret void
}

; Function Attrs: mustprogress uwtable
define noundef i32 @_Z13xtc_seek_timeP8t_fileiofib(ptr noundef %0, float noundef %1, i32 noundef %2, i1 noundef zeroext %3) #0 {
  %5 = alloca ptr, align 8
  %6 = alloca float, align 4
  %7 = alloca i32, align 4
  %8 = alloca i8, align 1
  %9 = alloca i32, align 4
  store ptr %0, ptr %5, align 8, !tbaa !4
  store float %1, ptr %6, align 4, !tbaa !166
  store i32 %2, ptr %7, align 4, !tbaa !54
  %10 = zext i1 %3 to i8
  store i8 %10, ptr %8, align 1, !tbaa !43
  call void @llvm.lifetime.start.p0(i64 4, ptr %9) #17
  %11 = load ptr, ptr %5, align 8, !tbaa !4
  call void @_Z12gmx_fio_lockP8t_fileio(ptr noundef %11)
  %12 = load float, ptr %6, align 4, !tbaa !166
  %13 = load ptr, ptr %5, align 8, !tbaa !4
  %14 = getelementptr inbounds nuw %struct.t_fileio, ptr %13, i32 0, i32 0
  %15 = load ptr, ptr %14, align 8, !tbaa !14
  %16 = load ptr, ptr %5, align 8, !tbaa !4
  %17 = getelementptr inbounds nuw %struct.t_fileio, ptr %16, i32 0, i32 5
  %18 = load ptr, ptr %17, align 8, !tbaa !38
  %19 = load i32, ptr %7, align 4, !tbaa !54
  %20 = load i8, ptr %8, align 1, !tbaa !43, !range !44, !noundef !45
  %21 = trunc i8 %20 to i1
  %22 = call noundef i32 @_Z17xdr_xtc_seek_timefP8_IO_FILEP3XDRib(float noundef %12, ptr noundef %15, ptr noundef %18, i32 noundef %19, i1 noundef zeroext %21)
  store i32 %22, ptr %9, align 4, !tbaa !54
  %23 = load ptr, ptr %5, align 8, !tbaa !4
  call void @_Z14gmx_fio_unlockP8t_fileio(ptr noundef %23)
  %24 = load i32, ptr %9, align 4, !tbaa !54
  call void @llvm.lifetime.end.p0(i64 4, ptr %9) #17
  ret i32 %24
}