; Function Attrs: mustprogress uwtable
define noundef i32 @_Z13xtc_seek_timeP8t_fileiofib(ptr noundef %0, float noundef %1, i32 noundef %2, i1 noundef zeroext %3) local_unnamed_addr #0 {
  %5 = getelementptr inbounds nuw i8, ptr %0, i64 88
  tail call void @_Z14tMPI_Lock_lockP9tMPI_Lock(ptr noundef nonnull %5)
  %6 = load ptr, ptr %0, align 8, !tbaa !14
  %7 = getelementptr inbounds nuw i8, ptr %0, i64 56
  %8 = load ptr, ptr %7, align 8, !tbaa !33
  %9 = tail call noundef i32 @_Z17xdr_xtc_seek_timefP8_IO_FILEP3XDRib(float noundef %1, ptr noundef %6, ptr noundef %8, i32 noundef %2, i1 noundef zeroext %3)
  tail call void @_Z16tMPI_Lock_unlockP9tMPI_Lock(ptr noundef nonnull %5)
  ret i32 %9
}